#include <math.h>
#include <stdio.h>
#include <stdlib.h>
#include <string.h>

main()
{int xg(int x);
 int i,k,j=0,n,p,q,s=0;
 scanf("%d",&n);
 int a[100];
 for(i=1;i<=n;i++)
   if(xg(i)==0) {a[j]=i;j++;}
 for(i=0;i<j;i++)
   s=s+a[i]*a[i];
 printf("%d",s);

}


int xg(int x)
{int m;m=x/10;
 if((x%7==0)||(m==7)||((x-m*10)==7)) return(1);
 else return(0);
} 
