; ModuleID = '30/1307.c'
source_filename = "30/1307.c"
target datalayout = "e-m:e-p270:32:32-p271:32:32-p272:64:64-i64:64-f80:128-n8:16:32:64-S128"
target triple = "x86_64-pc-linux-gnu"

@.str = private unnamed_addr constant [3 x i8] c"%d\00", align 1

; Function Attrs: noinline nounwind uwtable
define dso_local i32 @main() #0 {
  %1 = alloca i32, align 4
  %2 = alloca i32, align 4
  %3 = alloca i32, align 4
  %4 = alloca i32, align 4
  %5 = alloca i32, align 4
  %6 = alloca i32, align 4
  %7 = alloca i32, align 4
  %8 = alloca i32, align 4
  %9 = alloca [100 x i32], align 16
  store i32 0, i32* %1, align 4
  store i32 0, i32* %4, align 4
  store i32 0, i32* %8, align 4
  %10 = call i32 (i8*, ...) @__isoc99_scanf(i8* getelementptr inbounds ([3 x i8], [3 x i8]* @.str, i64 0, i64 0), i32* %5)
  store i32 1, i32* %2, align 4
  br label %11

11:                                               ; preds = %27, %0
  %12 = load i32, i32* %2, align 4
  %13 = load i32, i32* %5, align 4
  %14 = icmp sle i32 %12, %13
  br i1 %14, label %15, label %30

15:                                               ; preds = %11
  %16 = load i32, i32* %2, align 4
  %17 = call i32 @xg(i32 %16)
  %18 = icmp eq i32 %17, 0
  br i1 %18, label %19, label %26

19:                                               ; preds = %15
  %20 = load i32, i32* %2, align 4
  %21 = load i32, i32* %4, align 4
  %22 = sext i32 %21 to i64
  %23 = getelementptr inbounds [100 x i32], [100 x i32]* %9, i64 0, i64 %22
  store i32 %20, i32* %23, align 4
  %24 = load i32, i32* %4, align 4
  %25 = add nsw i32 %24, 1
  store i32 %25, i32* %4, align 4
  br label %26

26:                                               ; preds = %19, %15
  br label %27

27:                                               ; preds = %26
  %28 = load i32, i32* %2, align 4
  %29 = add nsw i32 %28, 1
  store i32 %29, i32* %2, align 4
  br label %11

30:                                               ; preds = %11
  store i32 0, i32* %2, align 4
  br label %31

31:                                               ; preds = %47, %30
  %32 = load i32, i32* %2, align 4
  %33 = load i32, i32* %4, align 4
  %34 = icmp slt i32 %32, %33
  br i1 %34, label %35, label %50

35:                                               ; preds = %31
  %36 = load i32, i32* %8, align 4
  %37 = load i32, i32* %2, align 4
  %38 = sext i32 %37 to i64
  %39 = getelementptr inbounds [100 x i32], [100 x i32]* %9, i64 0, i64 %38
  %40 = load i32, i32* %39, align 4
  %41 = load i32, i32* %2, align 4
  %42 = sext i32 %41 to i64
  %43 = getelementptr inbounds [100 x i32], [100 x i32]* %9, i64 0, i64 %42
  %44 = load i32, i32* %43, align 4
  %45 = mul nsw i32 %40, %44
  %46 = add nsw i32 %36, %45
  store i32 %46, i32* %8, align 4
  br label %47

47:                                               ; preds = %35
  %48 = load i32, i32* %2, align 4
  %49 = add nsw i32 %48, 1
  store i32 %49, i32* %2, align 4
  br label %31

50:                                               ; preds = %31
  %51 = load i32, i32* %8, align 4
  %52 = call i32 (i8*, ...) @printf(i8* getelementptr inbounds ([3 x i8], [3 x i8]* @.str, i64 0, i64 0), i32 %51)
  %53 = load i32, i32* %1, align 4
  ret i32 %53
}

declare dso_local i32 @__isoc99_scanf(i8*, ...) #1

; Function Attrs: noinline nounwind uwtable
define dso_local i32 @xg(i32 %0) #0 {
  %2 = alloca i32, align 4
  %3 = alloca i32, align 4
  %4 = alloca i32, align 4
  store i32 %0, i32* %3, align 4
  %5 = load i32, i32* %3, align 4
  %6 = sdiv i32 %5, 10
  store i32 %6, i32* %4, align 4
  %7 = load i32, i32* %3, align 4
  %8 = srem i32 %7, 7
  %9 = icmp eq i32 %8, 0
  br i1 %9, label %19, label %10

10:                                               ; preds = %1
  %11 = load i32, i32* %4, align 4
  %12 = icmp eq i32 %11, 7
  br i1 %12, label %19, label %13

13:                                               ; preds = %10
  %14 = load i32, i32* %3, align 4
  %15 = load i32, i32* %4, align 4
  %16 = mul nsw i32 %15, 10
  %17 = sub nsw i32 %14, %16
  %18 = icmp eq i32 %17, 7
  br i1 %18, label %19, label %20

19:                                               ; preds = %13, %10, %1
  store i32 1, i32* %2, align 4
  br label %21

20:                                               ; preds = %13
  store i32 0, i32* %2, align 4
  br label %21

21:                                               ; preds = %20, %19
  %22 = load i32, i32* %2, align 4
  ret i32 %22
}

declare dso_local i32 @printf(i8*, ...) #1


!llvm.module.flags = !{!0}
!llvm.ident = !{!1}

!0 = !{i32 1, !"wchar_size", i32 4}
!1 = !{!"clang version 10.0.0-4ubuntu1 "}
