; ModuleID = 'source-C-CXX/29/1307.c'
source_filename = "source-C-CXX/29/1307.c"
target datalayout = "e-m:e-p270:32:32-p271:32:32-p272:64:64-i64:64-f80:128-n8:16:32:64-S128"
target triple = "x86_64-pc-linux-gnu"

@.str = private unnamed_addr constant [3 x i8] c"%d\00", align 1

; Function Attrs: nofree nounwind sspstrong uwtable
define dso_local i32 @main() local_unnamed_addr #0 {
  %1 = alloca i32, align 4
  %2 = alloca [100 x i32], align 16
  %3 = bitcast i32* %1 to i8*
  call void @llvm.lifetime.start.p0i8(i64 4, i8* nonnull %3) #5
  %4 = call i32 (i8*, ...) @__isoc99_scanf(i8* getelementptr inbounds ([3 x i8], [3 x i8]* @.str, i64 0, i64 0), i32* nonnull %1)
  %5 = bitcast [100 x i32]* %2 to i8*
  call void @llvm.lifetime.start.p0i8(i64 400, i8* nonnull %5) #5
  %6 = load i32, i32* %1, align 4, !tbaa !5
  %7 = icmp slt i32 %6, 1
  br i1 %7, label %106, label %78

8:                                                ; preds = %93
  %9 = icmp sgt i32 %94, 0
  br i1 %9, label %10, label %106

10:                                               ; preds = %8
  %11 = zext i32 %94 to i64
  %12 = icmp ult i32 %94, 8
  br i1 %12, label %75, label %13

13:                                               ; preds = %10
  %14 = and i64 %11, 4294967288
  %15 = add nsw i64 %14, -8
  %16 = lshr exact i64 %15, 3
  %17 = add nuw nsw i64 %16, 1
  %18 = and i64 %17, 1
  %19 = icmp eq i64 %15, 0
  br i1 %19, label %51, label %20

20:                                               ; preds = %13
  %21 = and i64 %17, 4611686018427387902
  br label %22

22:                                               ; preds = %22, %20
  %23 = phi i64 [ 0, %20 ], [ %48, %22 ]
  %24 = phi <4 x i32> [ zeroinitializer, %20 ], [ %46, %22 ]
  %25 = phi <4 x i32> [ zeroinitializer, %20 ], [ %47, %22 ]
  %26 = phi i64 [ %21, %20 ], [ %49, %22 ]
  %27 = getelementptr inbounds [100 x i32], [100 x i32]* %2, i64 0, i64 %23
  %28 = bitcast i32* %27 to <4 x i32>*
  %29 = load <4 x i32>, <4 x i32>* %28, align 16, !tbaa !5
  %30 = getelementptr inbounds i32, i32* %27, i64 4
  %31 = bitcast i32* %30 to <4 x i32>*
  %32 = load <4 x i32>, <4 x i32>* %31, align 16, !tbaa !5
  %33 = mul nsw <4 x i32> %29, %29
  %34 = mul nsw <4 x i32> %32, %32
  %35 = add <4 x i32> %33, %24
  %36 = add <4 x i32> %34, %25
  %37 = or i64 %23, 8
  %38 = getelementptr inbounds [100 x i32], [100 x i32]* %2, i64 0, i64 %37
  %39 = bitcast i32* %38 to <4 x i32>*
  %40 = load <4 x i32>, <4 x i32>* %39, align 16, !tbaa !5
  %41 = getelementptr inbounds i32, i32* %38, i64 4
  %42 = bitcast i32* %41 to <4 x i32>*
  %43 = load <4 x i32>, <4 x i32>* %42, align 16, !tbaa !5
  %44 = mul nsw <4 x i32> %40, %40
  %45 = mul nsw <4 x i32> %43, %43
  %46 = add <4 x i32> %44, %35
  %47 = add <4 x i32> %45, %36
  %48 = add nuw i64 %23, 16
  %49 = add i64 %26, -2
  %50 = icmp eq i64 %49, 0
  br i1 %50, label %51, label %22, !llvm.loop !9

51:                                               ; preds = %22, %13
  %52 = phi <4 x i32> [ undef, %13 ], [ %46, %22 ]
  %53 = phi <4 x i32> [ undef, %13 ], [ %47, %22 ]
  %54 = phi i64 [ 0, %13 ], [ %48, %22 ]
  %55 = phi <4 x i32> [ zeroinitializer, %13 ], [ %46, %22 ]
  %56 = phi <4 x i32> [ zeroinitializer, %13 ], [ %47, %22 ]
  %57 = icmp eq i64 %18, 0
  br i1 %57, label %69, label %58

58:                                               ; preds = %51
  %59 = getelementptr inbounds [100 x i32], [100 x i32]* %2, i64 0, i64 %54
  %60 = bitcast i32* %59 to <4 x i32>*
  %61 = load <4 x i32>, <4 x i32>* %60, align 16, !tbaa !5
  %62 = getelementptr inbounds i32, i32* %59, i64 4
  %63 = bitcast i32* %62 to <4 x i32>*
  %64 = load <4 x i32>, <4 x i32>* %63, align 16, !tbaa !5
  %65 = mul nsw <4 x i32> %64, %64
  %66 = add <4 x i32> %65, %56
  %67 = mul nsw <4 x i32> %61, %61
  %68 = add <4 x i32> %67, %55
  br label %69

69:                                               ; preds = %51, %58
  %70 = phi <4 x i32> [ %52, %51 ], [ %68, %58 ]
  %71 = phi <4 x i32> [ %53, %51 ], [ %66, %58 ]
  %72 = add <4 x i32> %71, %70
  %73 = call i32 @llvm.vector.reduce.add.v4i32(<4 x i32> %72)
  %74 = icmp eq i64 %14, %11
  br i1 %74, label %106, label %75

75:                                               ; preds = %10, %69
  %76 = phi i64 [ 0, %10 ], [ %14, %69 ]
  %77 = phi i32 [ 0, %10 ], [ %73, %69 ]
  br label %97

78:                                               ; preds = %0, %93
  %79 = phi i32 [ %95, %93 ], [ 1, %0 ]
  %80 = phi i32 [ %94, %93 ], [ 0, %0 ]
  %81 = urem i32 %79, 7
  %82 = icmp ne i32 %81, 0
  %83 = add nsw i32 %79, -70
  %84 = icmp ugt i32 %83, 9
  %85 = urem i32 %79, 10
  %86 = icmp ne i32 %85, 7
  %87 = and i1 %82, %84
  %88 = select i1 %87, i1 %86, i1 false
  br i1 %88, label %89, label %93

89:                                               ; preds = %78
  %90 = sext i32 %80 to i64
  %91 = getelementptr inbounds [100 x i32], [100 x i32]* %2, i64 0, i64 %90
  store i32 %79, i32* %91, align 4, !tbaa !5
  %92 = add nsw i32 %80, 1
  br label %93

93:                                               ; preds = %78, %89
  %94 = phi i32 [ %92, %89 ], [ %80, %78 ]
  %95 = add nuw i32 %79, 1
  %96 = icmp eq i32 %79, %6
  br i1 %96, label %8, label %78, !llvm.loop !12

97:                                               ; preds = %75, %97
  %98 = phi i64 [ %104, %97 ], [ %76, %75 ]
  %99 = phi i32 [ %103, %97 ], [ %77, %75 ]
  %100 = getelementptr inbounds [100 x i32], [100 x i32]* %2, i64 0, i64 %98
  %101 = load i32, i32* %100, align 4, !tbaa !5
  %102 = mul nsw i32 %101, %101
  %103 = add nuw nsw i32 %102, %99
  %104 = add nuw nsw i64 %98, 1
  %105 = icmp eq i64 %104, %11
  br i1 %105, label %106, label %97, !llvm.loop !13

106:                                              ; preds = %97, %69, %0, %8
  %107 = phi i32 [ 0, %8 ], [ 0, %0 ], [ %73, %69 ], [ %103, %97 ]
  %108 = call i32 (i8*, ...) @printf(i8* nonnull dereferenceable(1) getelementptr inbounds ([3 x i8], [3 x i8]* @.str, i64 0, i64 0), i32 %107)
  call void @llvm.lifetime.end.p0i8(i64 400, i8* nonnull %5) #5
  call void @llvm.lifetime.end.p0i8(i64 4, i8* nonnull %3) #5
  ret i32 0
}

; Function Attrs: argmemonly mustprogress nofree nosync nounwind willreturn
declare void @llvm.lifetime.start.p0i8(i64 immarg, i8* nocapture) #1

; Function Attrs: nofree nounwind
declare noundef i32 @__isoc99_scanf(i8* nocapture noundef readonly, ...) local_unnamed_addr #2

; Function Attrs: mustprogress nofree norecurse nosync nounwind readnone sspstrong uwtable willreturn
define dso_local i32 @xg(i32 %0) local_unnamed_addr #3 {
  %2 = srem i32 %0, 7
  %3 = icmp eq i32 %2, 0
  %4 = add i32 %0, -70
  %5 = icmp ult i32 %4, 10
  %6 = or i1 %3, %5
  %7 = srem i32 %0, 10
  %8 = icmp eq i32 %7, 7
  %9 = select i1 %6, i1 true, i1 %8
  %10 = zext i1 %9 to i32
  ret i32 %10
}

; Function Attrs: nofree nounwind
declare noundef i32 @printf(i8* nocapture noundef readonly, ...) local_unnamed_addr #2

; Function Attrs: argmemonly mustprogress nofree nosync nounwind willreturn
declare void @llvm.lifetime.end.p0i8(i64 immarg, i8* nocapture) #1

; Function Attrs: nofree nosync nounwind readnone willreturn
declare i32 @llvm.vector.reduce.add.v4i32(<4 x i32>) #4


!llvm.module.flags = !{!0, !1, !2, !3}
!llvm.ident = !{!4}

!0 = !{i32 1, !"wchar_size", i32 4}
!1 = !{i32 7, !"PIC Level", i32 2}
!2 = !{i32 7, !"PIE Level", i32 2}
!3 = !{i32 7, !"uwtable", i32 1}
!4 = !{!"clang version 13.0.0"}
!5 = !{!6, !6, i64 0}
!6 = !{!"int", !7, i64 0}
!7 = !{!"omnipotent char", !8, i64 0}
!8 = !{!"Simple C/C++ TBAA"}
!9 = distinct !{!9, !10, !11}
!10 = !{!"llvm.loop.mustprogress"}
!11 = !{!"llvm.loop.isvectorized", i32 1}
!12 = distinct !{!12, !10}
!13 = distinct !{!13, !10, !14, !11}
!14 = !{!"llvm.loop.unroll.runtime.disable"}
